(dp0
I2
(iubx_interface.ephemeris
EphemerisData
p1
(dp2
S'omega_dot'
p3
F-8.2189137793203e-09
sS'_msg'
p4
(iubx_interface.ublox
UBloxMessage
p5
(dp6
S'_buf'
p7
S'\xb5b\x0b1h\x00\x02\x00\x00\x00\x04\xa0A\x00\x00\x00\xe3\x00\x00\x00\x00\x00\x00\x00\x00\x00\x00\x00\x00\x00\xd4\x00\x00\x0081*\x00\xc7\xff\x00\x00\x88\x82@\x00\x97\xf6*\x00al6\x00\xa2\xd0\xcc\x00\x08=\xf7\x00\x16Xp\x00\xa1J\n\x00Q\xbc\r\x00\x0081\x00\xf8$\x00\x003vl\x00&~\xff\x00n \x86\x00\xacK"\x00\x04\xde\xf9\x00\x1c\xa6\xff\x00\x1c\xf6*\x00Hs'
p8
sS'_fields'
p9
(dp10
S'sf1d'
p11
(lp12
I14876672
aI0
aI0
aI0
aI212
aI2765112
aI65479
aI4227720
asS'how'
p13
I4300804
sS'sf3d'
p14
(lp15
I9464
aI7108147
aI16743974
aI8790126
aI2247596
aI16375300
aI16754204
aI2815516
asS'svid'
p16
I2
sS'sf2d'
p17
(lp18
I2815639
aI3566689
aI13422754
aI16203016
aI7362582
aI674465
aI900177
aI3225600
assS'_unpacked'
p19
I01
sS'_recs'
p20
(lp21
sbsS'M0'
p22
F2.4003745722986762
sS'cus'
p23
F4.906207323074341e-06
sS'idot'
p24
F-2.2608084574612162e-10
sS'aodo'
p25
I0
sg13
I4300804
sS'_rsvd4'
p26
I0
sS'valid'
p27
I01
sS'_rsvd2'
p28
I0
sS'_rsvd3'
p29
I0
sS'_rsvd1'
p30
I0
sS'cuc'
p31
F-4.177913069725037e-06
sS'deltaN'
p32
F4.975921552819852e-09
sS'toe'
p33
F201600.0
sS'A'
p34
F26560798.41484095
sS'ecc'
p35
F0.016482117353007197
sS'i0'
p36
F0.9455195532789082
sg16
I2
sS'toc'
p37
F201600.0
sS'omega'
p38
F-2.037714456494883
sS'cic'
p39
F6.705522537231445e-08
sS'crs'
p40
F-75.28125
sS'iode'
p41
I42
sS'af1'
p42
F-6.480149750132114e-12
sS'cis'
p43
F-2.421438694000244e-07
sS'crc'
p44
F274.34375
sS'Tgd'
p45
F-2.0489096641540527e-08
sS'af0'
p46
F0.0004921713843941689
sS'omega0'
p47
F-0.18595090409297388
sS'af2'
p48
F0.0
sbsI6
(iubx_interface.ephemeris
EphemerisData
p49
(dp50
g3
F-8.23820029696689e-09
sg4
(iubx_interface.ublox
UBloxMessage
p51
(dp52
g7
S'\xb5b\x0b1h\x00\x06\x00\x00\x00\x04\xa0A\x00\x00\x00\xe3\x00\x00\x00\x00\x00\x00\x00\x00\x00\x00\x00\x00\x00\t\x00\x00\x0081,\x00,\x00\x00\x00\xf0]\'\x00]\xf6,\x00^\xde2\x00\x86\x1f\xb2\x00\x00\xd4\xf7\x00\xed\xe6F\x00\xa1\xba\x0b\x00\xee\xcd\x0c\x00\x0081\x00\xfa\x00\x00\x00\xc8o$\x00\'\xfd\xff\x00\xb5}`\x00\xc6\x03"\x00Io\x92\x00\xe6\xa5\xff\x00\xe8\xf4,\x00?a'
p53
sg9
(dp54
S'sf1d'
p55
(lp56
I14876672
aI0
aI0
aI0
aI9
aI2896184
aI44
aI2579952
asg13
I4300804
sS'sf3d'
p57
(lp58
I250
aI2387912
aI16776487
aI6323637
aI2229190
aI9596745
aI16754150
aI2946280
asg16
I6
sS'sf2d'
p59
(lp60
I2946653
aI3333726
aI11673478
aI16241664
aI4646637
aI768673
aI839150
aI3225600
assg19
I01
sg20
(lp61
sbsg22
F2.324184446994137
sg23
F5.591660737991333e-06
sg24
F-2.535819912792201e-10
sg25
I0
sg13
I4300804
sg26
I0
sg27
I01
sg28
I0
sg29
I0
sg30
I0
sg31
F-3.896653652191162e-06
sg32
F4.650908014701415e-09
sg33
F201600.0
sg34
F26559598.645505674
sg35
F0.0005409397417679429
sg36
F0.966454974534665
sg16
I6
sg37
F201600.0
sg38
F-1.4094949193952615
sg39
F0.0
sg40
F-77.09375
sg41
I44
sg42
F5.002220859751105e-12
sg43
F-5.587935447692871e-09
sg44
F272.09375
sg45
F4.190951585769653e-09
sg46
F0.00030034594237804413
sg47
F-0.14376883600052287
sg48
F0.0
sbsI13
(iubx_interface.ephemeris
EphemerisData
p62
(dp63
g3
F-7.994975879979356e-09
sg4
(iubx_interface.ublox
UBloxMessage
p64
(dp65
g7
S'\xb5b\x0b1h\x00\r\x00\x00\x00\x04\xa0A\x00\x00\x00\xe3\x00\x00\x00\x00\x00\x00\x00\x00\x00\x00\x00\x00\x00\xe8\x00\x00\x0081D\x00\xf0\xff\x00\x00\xd0l\xf7\x00\x13\x05D\x00a\xc80\x00\xda"X\x00\x02\x89\x04\x00\xa0\x9b\x16\x00\xa1+\x0e\x00|w\r\x00\x0081\x00T\x17\x00\x00\xde\x0fD\x00\'\n\x00\x00\x18\x97\x83\x00K\xb7\x1f\x00`\x1cf\x00\x8f\xa8\xff\x00\x18\x08D\x00\xf8\xd0'
p66
sg9
(dp67
S'sf1d'
p68
(lp69
I14876672
aI0
aI0
aI0
aI232
aI4469048
aI65520
aI16215248
asg13
I4300804
sS'sf3d'
p70
(lp71
I5972
aI4460510
aI2599
aI8623896
aI2078539
aI6691936
aI16754831
aI4458520
asg16
I13
sS'sf2d'
p72
(lp73
I4457747
aI3197025
aI5776090
aI297218
aI1481632
aI928673
aI882556
aI3225600
assg19
I01
sg20
(lp74
sbsg22
F2.3891881292869948
sg23
F6.755813956260681e-06
sg24
F1.8500770631357186e-10
sg25
I0
sg13
I4300804
sg26
I0
sg27
I01
sg28
I0
sg29
I0
sg30
I0
sg31
F2.162531018257141e-06
sg32
F4.460185784640706e-09
sg33
F201600.0
sg34
F26560451.98940194
sg35
F0.004078734666109085
sg36
F0.9698200650127621
sg16
I13
sg37
F201600.0
sg38
F1.8505666996224723
sg39
F4.284083843231201e-08
sg40
F40.59375
sg41
I68
sg42
F-1.8189894035458565e-12
sg43
F1.862645149230957e-08
sg44
F253.71875
sg45
F-1.1175870895385742e-08
sg46
F-6.54216855764389e-05
sg47
F2.068195539640058
sg48
F0.0
sbsI17
(iubx_interface.ephemeris
EphemerisData
p75
(dp76
g3
F-7.976046520066963e-09
sg4
(iubx_interface.ublox
UBloxMessage
p77
(dp78
g7
S'\xb5b\x0b1h\x00\x11\x00\x00\x00\x84\x9eA\x00\x00\x00\xe3\x00\x00\x00\x00\x00\x00\x00\x00\x00\x00\x00\x00\x00\xe9\x00\x00\x0071\x00\x00\t\x00\x00\x00\x9c\x90\xe6\x00\xa8\x04\x00\x00\xa4\xa1/\x00\x8doO\x00\x055\x04\x00\xe3\x11\xf8\x00\xa1\x17\n\x00\xe7\x85\x0c\x00\x0071\x00\xd1]\x00\x00\xc4~z\x00\'\n\x00\x00\xe8"\xdf\x00\xb3\xaf$\x00\xeas\x81\x00\xc4\xa8\xff\x00\x88\x11\x00\x00\n\xad'
p79
sg9
(dp80
S'sf1d'
p81
(lp82
I14876672
aI0
aI0
aI0
aI233
aI12599
aI9
aI15110300
asg13
I4300420
sS'sf3d'
p83
(lp84
I24017
aI8027844
aI2599
aI14623464
aI2404275
aI8483818
aI16754884
aI4488
asg16
I17
sS'sf2d'
p85
(lp86
I1192
aI3121572
aI5205901
aI275717
aI16257507
aI661409
aI820711
aI3225344
assg19
I01
sg20
(lp87
sbsg22
F-2.250403913075894
sg23
F4.811212420463562e-06
sg24
F4.00730977768007e-10
sg25
I0
sg13
I4300420
sg26
I0
sg27
I01
sg28
I0
sg29
I0
sg30
I0
sg31
F2.0060688257217407e-06
sg32
F4.354824253052861e-09
sg33
F201584.0
sg34
F26559236.14658781
sg35
F0.011658247909508646
sg36
F0.9785969415077548
sg16
I17
sg37
F201584.0
sg38
F-1.8774531999417021
sg39
F1.73225998878479e-07
sg40
F37.25
sg41
I0
sg42
F1.0231815394945443e-12
sg43
F1.862645149230957e-08
sg44
F293.46875
sg45
F-1.0710209608078003e-08
sg46
F-0.00019405456259846687
sg47
F-1.1418094743648683
sg48
F0.0
sbsI19
(iubx_interface.ephemeris
EphemerisData
p88
(dp89
g3
F-8.348204879099284e-09
sg4
(iubx_interface.ublox
UBloxMessage
p90
(dp91
g7
S"\xb5b\x0b1h\x00\x13\x00\x00\x00\x84\x9eA\x00\x00\x00\xe3\x00\x00\x00\x00\x00\x00\x00\x00\x00\x00\x00\x00\x00\xdf\x00\x00\x0071\x18\x00\x08\x00\x00\x00\xc8m\xbc\x00\xcb\x03\x18\x00%$1\x00\xd2u\xd8\x00\x05\x96\x03\x00c\xed6\x00\xa1\x02\x0b\x00\xc5'\r\x00\x0071\x00\xd3\xd5\xff\x00\x90\nq\x00'$\x00\x00\xa0\x1f\xc2\x00$\x0e$\x00\x8c\xf1\xf7\x00\xb2\xa4\xff\x00 \x08\x18\x00\xe4Q"
p92
sg9
(dp93
S'sf1d'
p94
(lp95
I14876672
aI0
aI0
aI0
aI223
aI1585463
aI8
aI12348872
asg13
I4300420
sS'sf3d'
p96
(lp97
I16766419
aI7408272
aI9255
aI12722080
aI2362916
aI16249228
aI16753842
aI1574944
asg16
I19
sS'sf2d'
p98
(lp99
I1573835
aI3220517
aI14185938
aI235013
aI3599715
aI721569
aI862149
aI3225344
assg19
I01
sg20
(lp100
sbsg22
F0.9288694915998646
sg23
F5.248934030532837e-06
sg24
F1.8572202178196405e-10
sg25
I0
sg13
I4300420
sg26
I0
sg27
I01
sg28
I0
sg29
I0
sg30
I0
sg31
F1.7099082469940186e-06
sg32
F4.4930442961867455e-09
sg33
F201584.0
sg34
F26560050.794567015
sg35
F0.010184686980210245
sg36
F0.9758153724785255
sg16
I19
sg37
F201584.0
sg38
F0.9073442232374656
sg39
F-8.009374141693115e-08
sg40
F30.34375
sg41
I24
sg42
F9.094947017729282e-13
sg43
F6.705522537231445e-08
sg44
F288.4375
sg45
F-1.5366822481155396e-08
sg46
F-0.0005155270919203758
sg47
F-1.0936284722327354
sg48
F0.0
sbsI24
(iubx_interface.ephemeris
EphemerisData
p101
(dp102
g3
F-8.359276768859363e-09
sg4
(iubx_interface.ublox
UBloxMessage
p103
(dp104
g7
S'\xb5b\x0b1h\x00\x18\x00\x00\x00\x04\xa0A\x00\x00\x00\xe3\x00\x00\x00\x00\x00\x00\x00\x00\x00\x00\x00\x00\x00\x05\x00\x00\x0081\x15\x00\xfb\xff\x00\x00\xd4-\xfc\x00\x00\xff\x15\x00Zm6\x00\xaeH\x81\x00\x02\x1f\xff\x00\xaaY\xc2\x00\xa1\xc4\x0c\x00,\xa5\r\x00\x0081\x00y\xd4\xff\x00\xdc\xc3\x0e\x00&\xfe\xff\x00\xe7\xfb\x95\x00\x11\xc6\x1f\x00\x07D\xb8\x00\x93\xa4\xff\x00L\xf4\x15\x00:\xff'
p105
sg9
(dp106
S'sf1d'
p107
(lp108
I14876672
aI0
aI0
aI0
aI5
aI1388856
aI65531
aI16526804
asg13
I4300804
sS'sf3d'
p109
(lp110
I16766073
aI967644
aI16776742
aI9829351
aI2082321
aI12076039
aI16753811
aI1438796
asg16
I24
sS'sf2d'
p111
(lp112
I1441536
aI3566938
aI8472750
aI16719618
aI12736938
aI836769
aI894252
aI3225600
assg19
I01
sg20
(lp113
sbsg22
F2.2213272737114393
sg23
F6.087124347686768e-06
sg24
F-2.6751114291286747e-10
sg25
I0
sg13
I4300804
sg26
I0
sg27
I01
sg28
I0
sg29
I0
sg30
I0
sg31
F-4.1909515857696533e-07
sg32
F4.9762787105540484e-09
sg33
F201600.0
sg34
F26560681.93023914
sg35
F0.0053890247363597155
sg36
F0.9470398543198347
sg16
I24
sg37
F201600.0
sg38
F0.43490903008393067
sg39
F-8.195638656616211e-08
sg40
F-8.0
sg41
I21
sg42
F-5.684341886080801e-13
sg43
F-3.725290298461914e-09
sg44
F254.1875
sg45
F2.3283064365386963e-09
sg46
F-2.91517935693264e-05
sg47
F2.971202389248502
sg48
F0.0
sbsI28
(iubx_interface.ephemeris
EphemerisData
p114
(dp115
g3
F-7.804610807652843e-09
sg4
(iubx_interface.ublox
UBloxMessage
p116
(dp117
g7
S'\xb5b\x0b1h\x00\x1c\x00\x00\x00\x04\xa0A\x00\x00\x01\xe3\x00\x00\x00\x00\x00\x00\x00\x00\x00\x00\x00\x00\x00\xe8\x00\x00\x0081G\x00\x1a\x00\x00\x00\xa8`L\x00W\x05G\x00\xca\xd0(\x00\xb5\xf6^\x00\n\\\x05\x00\xc2\x8bE\x00\xa1\xb7\x16\x00\xc5+\r\x00\x0081\x00\xa8\x9f\xff\x00QG$\x00(\xf6\x00\x00mBL\x00\xbf\xae\x17\x00\x81\x05\x92\x00\xa4\xaa\xff\x00X\x01G\x00r\xed'
p118
sg9
(dp119
S'sf1d'
p120
(lp121
I14876928
aI0
aI0
aI0
aI232
aI4665656
aI26
aI5005480
asg13
I4300804
sS'sf3d'
p122
(lp123
I16752552
aI2377553
aI63016
aI4997741
aI1552063
aI9569665
aI16755364
aI4653400
asg16
I28
sS'sf2d'
p124
(lp125
I4654423
aI2674890
aI6223541
aI351242
aI4557762
aI1488801
aI863173
aI3225600
assg19
I01
sg20
(lp126
sbsg22
F-1.3162548700872365
sg23
F1.0831281542778015e-05
sg24
F3.0715565140863285e-11
sg25
I0
sg13
I4300804
sg26
I0
sg27
I01
sg28
I0
sg29
I0
sg30
I0
sg31
F2.555549144744873e-06
sg32
F3.731584006880693e-09
sg33
F201600.0
sg34
F26560070.92599434
sg35
F0.020061843330040574
sg36
F0.9890589899112073
sg16
I28
sg37
F201600.0
sg38
F-1.5813403834600401
sg39
F-1.8067657947540283e-07
sg40
F42.71875
sg41
I71
sg42
F2.9558577807620168e-12
sg43
F4.5821070671081543e-07
sg44
F189.4375
sg45
F-1.1175870895385742e-08
sg46
F0.0005827145650982857
sg47
F-2.156366784074872
sg48
F0.0
sbs.